target datalayout = "e-m:e-p270:32:32-p271:32:32-p272:64:64-i64:64-i128:128-f80:128-n8:16:32:64-S128"
target triple = "x86_64-pc-linux-gnu"

@.str = private unnamed_addr constant [2 x i8] c")\00", align 1

; Function Attrs: nounwind uwtable
define ptr @Acec_ParseSignature(ptr noundef %0) #0 {
  %2 = alloca ptr, align 8
  %3 = alloca ptr, align 8
  %4 = alloca ptr, align 8
  %5 = alloca ptr, align 8
  %6 = alloca ptr, align 8
  %7 = alloca ptr, align 8
  %8 = alloca ptr, align 8
  %9 = alloca ptr, align 8
  %10 = alloca ptr, align 8
  %11 = alloca ptr, align 8
  %12 = alloca ptr, align 8
  %13 = alloca i32, align 4
  %14 = alloca ptr, align 8
  store ptr %0, ptr %3, align 8
  store ptr null, ptr %4, align 8
  %15 = load ptr, ptr %3, align 8
  %16 = getelementptr inbounds i8, ptr %15, i64 0
  %17 = load i8, ptr %16, align 1
  %18 = sext i8 %17 to i32
  %19 = icmp eq i32 %18, 40
  br i1 %19, label %20, label %110

20:                                               ; preds = %1
  %21 = load ptr, ptr %3, align 8
  %22 = call ptr @strstr(ptr noundef %21, ptr noundef @.str) #9
  store ptr %22, ptr %8, align 8
  %23 = load ptr, ptr %8, align 8
  %24 = icmp eq ptr %23, null
  br i1 %24, label %25, label %26

25:                                               ; preds = %20
  store ptr null, ptr %2, align 8
  br label %150

26:                                               ; preds = %20
  %27 = load ptr, ptr %3, align 8
  %28 = load ptr, ptr %8, align 8
  %29 = call ptr @Acec_ParseSignatureOne(ptr noundef %27, ptr noundef %28)
  store ptr %29, ptr %5, align 8
  %30 = load ptr, ptr %8, align 8
  %31 = getelementptr inbounds i8, ptr %30, i64 1
  %32 = load i8, ptr %31, align 1
  %33 = sext i8 %32 to i32
  %34 = icmp eq i32 %33, 0
  br i1 %34, label %35, label %37

35:                                               ; preds = %26
  %36 = load ptr, ptr %5, align 8
  store ptr %36, ptr %2, align 8
  br label %150

37:                                               ; preds = %26
  %38 = load ptr, ptr %8, align 8
  %39 = getelementptr inbounds i8, ptr %38, i64 1
  %40 = load i8, ptr %39, align 1
  %41 = sext i8 %40 to i32
  %42 = icmp eq i32 %41, 42
  br i1 %42, label %43, label %109

43:                                               ; preds = %37
  %44 = load ptr, ptr %8, align 8
  %45 = getelementptr inbounds i8, ptr %44, i64 2
  store ptr %45, ptr %9, align 8
  %46 = load ptr, ptr %9, align 8
  %47 = call ptr @strstr(ptr noundef %46, ptr noundef @.str) #9
  store ptr %47, ptr %10, align 8
  %48 = load ptr, ptr %9, align 8
  %49 = getelementptr inbounds i8, ptr %48, i64 0
  %50 = load i8, ptr %49, align 1
  %51 = sext i8 %50 to i32
  %52 = icmp ne i32 %51, 40
  br i1 %52, label %53, label %54

53:                                               ; preds = %43
  store ptr null, ptr %2, align 8
  br label %150

54:                                               ; preds = %43
  %55 = load ptr, ptr %10, align 8
  %56 = icmp eq ptr %55, null
  br i1 %56, label %57, label %58

57:                                               ; preds = %54
  store ptr null, ptr %2, align 8
  br label %150

58:                                               ; preds = %54
  %59 = load ptr, ptr %9, align 8
  %60 = load ptr, ptr %10, align 8
  %61 = call ptr @Acec_ParseSignatureOne(ptr noundef %59, ptr noundef %60)
  store ptr %61, ptr %6, align 8
  %62 = load ptr, ptr %10, align 8
  %63 = getelementptr inbounds i8, ptr %62, i64 1
  %64 = load i8, ptr %63, align 1
  %65 = sext i8 %64 to i32
  %66 = icmp eq i32 %65, 0
  br i1 %66, label %67, label %75

67:                                               ; preds = %58
  %68 = load ptr, ptr %5, align 8
  %69 = load ptr, ptr %6, align 8
  %70 = load ptr, ptr %4, align 8
  %71 = call ptr @Acec_ParseDistribute(ptr noundef %68, ptr noundef %69, ptr noundef %70)
  store ptr %71, ptr %7, align 8
  %72 = load ptr, ptr %5, align 8
  call void @Vec_WecFree(ptr noundef %72)
  %73 = load ptr, ptr %6, align 8
  call void @Vec_WecFree(ptr noundef %73)
  %74 = load ptr, ptr %7, align 8
  store ptr %74, ptr %2, align 8
  br label %150

75:                                               ; preds = %58
  %76 = load ptr, ptr %10, align 8
  %77 = getelementptr inbounds i8, ptr %76, i64 1
  %78 = load i8, ptr %77, align 1
  %79 = sext i8 %78 to i32
  %80 = icmp eq i32 %79, 43
  br i1 %80, label %81, label %108

81:                                               ; preds = %75
  %82 = load ptr, ptr %10, align 8
  %83 = getelementptr inbounds i8, ptr %82, i64 2
  store ptr %83, ptr %11, align 8
  %84 = load ptr, ptr %11, align 8
  %85 = call ptr @strstr(ptr noundef %84, ptr noundef @.str) #9
  store ptr %85, ptr %12, align 8
  %86 = load ptr, ptr %11, align 8
  %87 = getelementptr inbounds i8, ptr %86, i64 0
  %88 = load i8, ptr %87, align 1
  %89 = sext i8 %88 to i32
  %90 = icmp ne i32 %89, 40
  br i1 %90, label %91, label %92

91:                                               ; preds = %81
  store ptr null, ptr %2, align 8
  br label %150

92:                                               ; preds = %81
  %93 = load ptr, ptr %12, align 8
  %94 = icmp eq ptr %93, null
  br i1 %94, label %95, label %96

95:                                               ; preds = %92
  store ptr null, ptr %2, align 8
  br label %150

96:                                               ; preds = %92
  %97 = load ptr, ptr %11, align 8
  %98 = load ptr, ptr %12, align 8
  %99 = call ptr @Acec_ParseSignatureOne(ptr noundef %97, ptr noundef %98)
  store ptr %99, ptr %4, align 8
  %100 = load ptr, ptr %5, align 8
  %101 = load ptr, ptr %6, align 8
  %102 = load ptr, ptr %4, align 8
  %103 = call ptr @Acec_ParseDistribute(ptr noundef %100, ptr noundef %101, ptr noundef %102)
  store ptr %103, ptr %7, align 8
  %104 = load ptr, ptr %5, align 8
  call void @Vec_WecFree(ptr noundef %104)
  %105 = load ptr, ptr %6, align 8
  call void @Vec_WecFree(ptr noundef %105)
  %106 = load ptr, ptr %4, align 8
  call void @Vec_WecFree(ptr noundef %106)
  %107 = load ptr, ptr %7, align 8
  store ptr %107, ptr %2, align 8
  br label %150

108:                                              ; preds = %75
  br label %109

109:                                              ; preds = %108, %37
  br label %149

110:                                              ; preds = %1
  %111 = load ptr, ptr %3, align 8
  %112 = call i64 @strlen(ptr noundef %111) #9
  %113 = trunc i64 %112 to i32
  store i32 %113, ptr %13, align 4
  %114 = load i32, ptr %13, align 4
  %115 = add nsw i32 %114, 3
  %116 = sext i32 %115 to i64
  %117 = mul i64 1, %116
  %118 = call noalias ptr @malloc(i64 noundef %117) #10
  store ptr %118, ptr %14, align 8
  %119 = load ptr, ptr %14, align 8
  %120 = getelementptr inbounds i8, ptr %119, i64 0
  store i8 40, ptr %120, align 1
  %121 = load ptr, ptr %14, align 8
  %122 = getelementptr inbounds i8, ptr %121, i64 1
  %123 = load ptr, ptr %3, align 8
  %124 = call ptr @strcpy(ptr noundef %122, ptr noundef %123) #12
  %125 = load ptr, ptr %14, align 8
  %126 = load i32, ptr %13, align 4
  %127 = add nsw i32 %126, 1
  %128 = sext i32 %127 to i64
  %129 = getelementptr inbounds i8, ptr %125, i64 %128
  store i8 41, ptr %129, align 1
  %130 = load ptr, ptr %14, align 8
  %131 = load i32, ptr %13, align 4
  %132 = add nsw i32 %131, 2
  %133 = sext i32 %132 to i64
  %134 = getelementptr inbounds i8, ptr %130, i64 %133
  store i8 0, ptr %134, align 1
  %135 = load ptr, ptr %14, align 8
  %136 = load ptr, ptr %14, align 8
  %137 = load i32, ptr %13, align 4
  %138 = sext i32 %137 to i64
  %139 = getelementptr inbounds i8, ptr %136, i64 %138
  %140 = getelementptr inbounds i8, ptr %139, i64 1
  %141 = call ptr @Acec_ParseSignatureOne(ptr noundef %135, ptr noundef %140)
  store ptr %141, ptr %7, align 8
  %142 = load ptr, ptr %14, align 8
  %143 = icmp ne ptr %142, null
  br i1 %143, label %144, label %146

144:                                              ; preds = %110
  %145 = load ptr, ptr %14, align 8
  call void @free(ptr noundef %145) #12
  store ptr null, ptr %14, align 8
  br label %147

146:                                              ; preds = %110
  br label %147

147:                                              ; preds = %146, %144
  %148 = load ptr, ptr %7, align 8
  store ptr %148, ptr %2, align 8
  br label %150

149:                                              ; preds = %109
  store ptr null, ptr %2, align 8
  br label %150

150:                                              ; preds = %149, %147, %96, %95, %91, %67, %57, %53, %35, %25
  %151 = load ptr, ptr %2, align 8
  ret ptr %151
}