; Function Attrs: nounwind uwtable
define noalias noundef ptr @Acec_ParseSignature(ptr noundef %0) local_unnamed_addr #0 {
  %2 = load i8, ptr %0, align 1
  %3 = icmp eq i8 %2, 40
  br i1 %3, label %4, label %47

4:                                                ; preds = %1
  %strchr = tail call ptr @strchr(ptr noundef nonnull dereferenceable(1) %0, i32 41)
  %5 = icmp eq ptr %strchr, null
  br i1 %5, label %73, label %6

6:                                                ; preds = %4
  %7 = tail call noalias dereferenceable_or_null(16) ptr @malloc(i64 noundef 16) #25
  %8 = getelementptr inbounds nuw i8, ptr %7, i64 4
  store i32 0, ptr %8, align 4
  store i32 10, ptr %7, align 8
  %9 = tail call noalias dereferenceable_or_null(160) ptr @calloc(i64 noundef 10, i64 noundef 16) #26
  %10 = getelementptr inbounds nuw i8, ptr %7, i64 8
  store ptr %9, ptr %10, align 8
  br label %.preheader.i

.preheader.i:                                     ; preds = %6, %15
  %.01316.i = phi ptr [ %.0.i, %15 ], [ %0, %6 ]
  br label %11

11:                                               ; preds = %13, %.preheader.i
  %.013.pn.i = phi ptr [ %.0.i, %13 ], [ %.01316.i, %.preheader.i ]
  %.0.i = getelementptr inbounds nuw i8, ptr %.013.pn.i, i64 1
  %12 = icmp ult ptr %.0.i, %strchr
  br i1 %12, label %13, label %15

13:                                               ; preds = %11
  %14 = load i8, ptr %.0.i, align 1
  switch i8 %14, label %11 [
    i8 43, label %15
    i8 45, label %15
  ], !llvm.loop !7

15:                                               ; preds = %13, %13, %11
  %16 = tail call fastcc ptr @Vec_WecPushLevel(ptr noundef nonnull %7)
  tail call void @Acec_ParseSignatureMono(ptr noundef nonnull %.01316.i, ptr noundef nonnull %.0.i, ptr noundef nonnull %16)
  %17 = load i8, ptr %.0.i, align 1
  %.not.i = icmp eq i8 %17, 41
  br i1 %.not.i, label %Acec_ParseSignatureOne.exit, label %.preheader.i, !llvm.loop !8

Acec_ParseSignatureOne.exit:                      ; preds = %15
  %18 = getelementptr inbounds nuw i8, ptr %strchr, i64 1
  %19 = load i8, ptr %18, align 1
  switch i8 %19, label %72 [
    i8 0, label %73
    i8 42, label %20
  ]

20:                                               ; preds = %Acec_ParseSignatureOne.exit
  %21 = getelementptr inbounds nuw i8, ptr %strchr, i64 2
  %strchr58 = tail call ptr @strchr(ptr noundef nonnull dereferenceable(1) %21, i32 41)
  %22 = load i8, ptr %21, align 1
  %.not = icmp ne i8 %22, 40
  %23 = icmp eq ptr %strchr58, null
  %or.cond = select i1 %.not, i1 true, i1 %23
  br i1 %or.cond, label %73, label %24

24:                                               ; preds = %20
  %25 = tail call noalias dereferenceable_or_null(16) ptr @malloc(i64 noundef 16) #25
  %26 = getelementptr inbounds nuw i8, ptr %25, i64 4
  store i32 0, ptr %26, align 4
  store i32 10, ptr %25, align 8
  %27 = tail call noalias dereferenceable_or_null(160) ptr @calloc(i64 noundef 10, i64 noundef 16) #26
  %28 = getelementptr inbounds nuw i8, ptr %25, i64 8
  store ptr %27, ptr %28, align 8
  br label %.preheader.i63

.preheader.i63:                                   ; preds = %24, %33
  %.01316.i64 = phi ptr [ %.0.i66, %33 ], [ %21, %24 ]
  br label %29

29:                                               ; preds = %31, %.preheader.i63
  %.013.pn.i65 = phi ptr [ %.0.i66, %31 ], [ %.01316.i64, %.preheader.i63 ]
  %.0.i66 = getelementptr inbounds nuw i8, ptr %.013.pn.i65, i64 1
  %30 = icmp ult ptr %.0.i66, %strchr58
  br i1 %30, label %31, label %33

31:                                               ; preds = %29
  %32 = load i8, ptr %.0.i66, align 1
  switch i8 %32, label %29 [
    i8 43, label %33
    i8 45, label %33
  ], !llvm.loop !7

33:                                               ; preds = %31, %31, %29
  %34 = tail call fastcc ptr @Vec_WecPushLevel(ptr noundef nonnull %25)
  tail call void @Acec_ParseSignatureMono(ptr noundef nonnull %.01316.i64, ptr noundef nonnull %.0.i66, ptr noundef nonnull %34)
  %35 = load i8, ptr %.0.i66, align 1
  %.not.i67 = icmp eq i8 %35, 41
  br i1 %.not.i67, label %Acec_ParseSignatureOne.exit68, label %.preheader.i63, !llvm.loop !8

Acec_ParseSignatureOne.exit68:                    ; preds = %33
  %36 = getelementptr inbounds nuw i8, ptr %strchr58, i64 1
  %37 = load i8, ptr %36, align 1
  switch i8 %37, label %72 [
    i8 0, label %38
    i8 43, label %40
  ]

38:                                               ; preds = %Acec_ParseSignatureOne.exit68
  %39 = tail call ptr @Acec_ParseDistribute(ptr noundef nonnull %7, ptr noundef nonnull %25, ptr noundef null)
  tail call fastcc void @Vec_WecFree(ptr noundef nonnull %7)
  tail call fastcc void @Vec_WecFree(ptr noundef nonnull %25)
  br label %73

40:                                               ; preds = %Acec_ParseSignatureOne.exit68
  %41 = getelementptr inbounds nuw i8, ptr %strchr58, i64 2
  %strchr59 = tail call ptr @strchr(ptr noundef nonnull dereferenceable(1) %41, i32 41)
  %42 = load i8, ptr %41, align 1
  %.not60 = icmp ne i8 %42, 40
  %43 = icmp eq ptr %strchr59, null
  %or.cond61 = select i1 %.not60, i1 true, i1 %43
  br i1 %or.cond61, label %73, label %44

44:                                               ; preds = %40
  %45 = tail call ptr @Acec_ParseSignatureOne(ptr noundef nonnull %41, ptr noundef nonnull %strchr59)
  %46 = tail call ptr @Acec_ParseDistribute(ptr noundef nonnull %7, ptr noundef nonnull %25, ptr noundef %45)
  tail call fastcc void @Vec_WecFree(ptr noundef nonnull %7)
  tail call fastcc void @Vec_WecFree(ptr noundef nonnull %25)
  tail call fastcc void @Vec_WecFree(ptr noundef %45)
  br label %73

47:                                               ; preds = %1
  %48 = tail call i64 @strlen(ptr noundef nonnull dereferenceable(1) %0) #23
  %49 = shl i64 %48, 32
  %sext = add i64 %49, 12884901888
  %50 = ashr exact i64 %sext, 32
  %51 = tail call noalias ptr @malloc(i64 noundef %50) #25
  store i8 40, ptr %51, align 1
  %52 = getelementptr inbounds nuw i8, ptr %51, i64 1
  %53 = tail call ptr @strcpy(ptr noundef nonnull dereferenceable(1) %52, ptr noundef nonnull dereferenceable(1) %0) #27
  %sext55 = add i64 %49, 4294967296
  %54 = ashr exact i64 %sext55, 32
  %55 = getelementptr inbounds i8, ptr %51, i64 %54
  store i8 41, ptr %55, align 1
  %sext56 = add i64 %49, 8589934592
  %56 = ashr exact i64 %sext56, 32
  %57 = getelementptr inbounds i8, ptr %51, i64 %56
  store i8 0, ptr %57, align 1
  %58 = ashr exact i64 %49, 32
  %59 = getelementptr inbounds i8, ptr %51, i64 %58
  %60 = tail call noalias dereferenceable_or_null(16) ptr @malloc(i64 noundef 16) #25
  %61 = getelementptr inbounds nuw i8, ptr %60, i64 4
  store i32 0, ptr %61, align 4
  store i32 10, ptr %60, align 8
  %62 = tail call noalias dereferenceable_or_null(160) ptr @calloc(i64 noundef 10, i64 noundef 16) #26
  %63 = getelementptr inbounds nuw i8, ptr %60, i64 8
  store ptr %62, ptr %63, align 8
  %64 = load i8, ptr %51, align 1
  %.not15.i69 = icmp eq i8 %64, 41
  br i1 %.not15.i69, label %Acec_ParseSignatureOne.exit75, label %.preheader.i70

.preheader.i70:                                   ; preds = %47, %69
  %.01316.i71 = phi ptr [ %.0.i73, %69 ], [ %51, %47 ]
  br label %65

65:                                               ; preds = %67, %.preheader.i70
  %.013.pn.i72 = phi ptr [ %.0.i73, %67 ], [ %.01316.i71, %.preheader.i70 ]
  %.0.i73 = getelementptr inbounds nuw i8, ptr %.013.pn.i72, i64 1
  %66 = icmp ult ptr %.013.pn.i72, %59
  br i1 %66, label %67, label %69

67:                                               ; preds = %65
  %68 = load i8, ptr %.0.i73, align 1
  switch i8 %68, label %65 [
    i8 43, label %69
    i8 45, label %69
  ], !llvm.loop !7

69:                                               ; preds = %67, %67, %65
  %70 = tail call fastcc ptr @Vec_WecPushLevel(ptr noundef nonnull %60)
  tail call void @Acec_ParseSignatureMono(ptr noundef nonnull %.01316.i71, ptr noundef nonnull %.0.i73, ptr noundef nonnull %70)
  %71 = load i8, ptr %.0.i73, align 1
  %.not.i74 = icmp eq i8 %71, 41
  br i1 %.not.i74, label %Acec_ParseSignatureOne.exit75, label %.preheader.i70, !llvm.loop !8

Acec_ParseSignatureOne.exit75:                    ; preds = %69, %47
  tail call void @free(ptr noundef %51) #27
  br label %73

72:                                               ; preds = %Acec_ParseSignatureOne.exit68, %Acec_ParseSignatureOne.exit
  br label %73

73:                                               ; preds = %40, %20, %Acec_ParseSignatureOne.exit, %4, %72, %Acec_ParseSignatureOne.exit75, %44, %38
  %.0 = phi ptr [ %39, %38 ], [ %46, %44 ], [ null, %72 ], [ %60, %Acec_ParseSignatureOne.exit75 ], [ null, %4 ], [ %7, %Acec_ParseSignatureOne.exit ], [ null, %20 ], [ null, %40 ]
  ret ptr %.0
}